; Function Attrs: null_pointer_is_valid sspstrong uwtable
define internal noundef i32 @dnp3_endpoint_packet(ptr noundef initializes((24, 28)) %0, ptr noundef readonly captures(none) %1, ptr readnone captures(none) %2, ptr noundef %3, i32 noundef %4) #0 {
  %6 = getelementptr inbounds nuw i8, ptr %1, i64 408
  %7 = load ptr, ptr %6, align 8
  %8 = tail call noalias dereferenceable_or_null(24) ptr @wmem_alloc0(ptr noundef %7, i64 noundef 24) #10
  %9 = load ptr, ptr %6, align 8
  %10 = tail call noalias dereferenceable_or_null(24) ptr @wmem_alloc0(ptr noundef %9, i64 noundef 24) #10
  %11 = getelementptr inbounds nuw i8, ptr %0, i64 24
  store i32 %4, ptr %11, align 8
  %12 = load ptr, ptr %6, align 8
  tail call void @llvm.memset.p0.i64(ptr noundef align 8 dereferenceable(24) %8, i8 0, i64 24, i1 false)
  store i32 12, ptr %8, align 8
  %13 = tail call dereferenceable_or_null(2) ptr @wmem_memdup(ptr noundef %12, ptr noundef %3, i64 noundef 2) #11
  %14 = getelementptr inbounds nuw i8, ptr %8, i64 16
  store ptr %13, ptr %14, align 8
  %15 = getelementptr inbounds nuw i8, ptr %8, i64 8
  store ptr %13, ptr %15, align 8
  %16 = getelementptr inbounds nuw i8, ptr %8, i64 4
  store i32 2, ptr %16, align 4
  %17 = load ptr, ptr %6, align 8
  tail call void @llvm.memset.p0.i64(ptr noundef align 8 dereferenceable(24) %10, i8 0, i64 24, i1 false)
  store i32 12, ptr %10, align 8
  %18 = tail call dereferenceable_or_null(2) ptr @wmem_memdup(ptr noundef %17, ptr noundef %3, i64 noundef 2) #11
  %19 = getelementptr inbounds nuw i8, ptr %10, i64 16
  store ptr %18, ptr %19, align 8
  %20 = getelementptr inbounds nuw i8, ptr %10, i64 8
  store ptr %18, ptr %20, align 8
  %21 = getelementptr inbounds nuw i8, ptr %10, i64 4
  store i32 2, ptr %21, align 4
  %22 = getelementptr inbounds nuw i8, ptr %3, i64 4
  %23 = load i16, ptr %22, align 2
  %24 = zext i16 %23 to i32
  tail call void @add_endpoint_table_data(ptr noundef %0, ptr noundef %8, i32 noundef 0, i1 noundef zeroext true, i32 noundef 1, i32 noundef %24, ptr noundef nonnull @dnp3_dissector_info, i32 noundef 0)
  %25 = load i16, ptr %22, align 2
  %26 = zext i16 %25 to i32
  tail call void @add_endpoint_table_data(ptr noundef %0, ptr noundef %10, i32 noundef 0, i1 noundef zeroext false, i32 noundef 1, i32 noundef %26, ptr noundef nonnull @dnp3_dissector_info, i32 noundef 0)
  ret i32 1
}